target datalayout = "e-m:e-p270:32:32-p271:32:32-p272:64:64-i64:64-i128:128-f80:128-n8:16:32:64-S128"
target triple = "x86_64-pc-linux-gnu"

%"class.euf::ac_plugin" = type { %"class.euf::plugin", i32, i32, ptr, %class.vector, %class.ptr_vector, %class.svector, %class.vector.2, %class.svector.3, %class.stacked_dependency_manager, %class.tracked_uint_set, %class.tracked_uint_set, i64, %"struct.euf::ac_plugin::monomial_hash", %"struct.euf::ac_plugin::monomial_eq", %class.map, %class.svector.11, %class.ptr_vector, %class.svector.13, %class.svector.15, %class.svector.17, %"class.std::function", %class.ptr_vector.19, %class.ptr_vector, %class.ptr_vector, %class.ptr_vector, %class.ptr_vector, %"struct.euf::ac_plugin::ref_counts", %"struct.euf::ac_plugin::ref_counts", %"struct.euf::ac_plugin::ref_counts", %"struct.euf::ac_plugin::ref_counts", %"struct.euf::ac_plugin::ref_counts", %"struct.euf::ac_plugin::ref_counts", %class.svector.9, %class.svector }
%"class.euf::plugin" = type { ptr, ptr }
%class.vector = type { ptr }
%class.vector.2 = type { ptr }
%class.svector.3 = type { %class.vector.4 }
%class.vector.4 = type { ptr }
%class.stacked_dependency_manager = type { [8 x i8], %"class.stacked_dependency_manager<euf::justification>::config::allocator", %class.dependency_manager }
%"class.stacked_dependency_manager<euf::justification>::config::allocator" = type { ptr }
%class.dependency_manager = type { ptr, ptr, %class.ptr_vector.5 }
%class.ptr_vector.5 = type { %class.vector.6 }
%class.vector.6 = type { ptr }
%class.tracked_uint_set = type { %class.svector.7, %class.svector.9 }
%class.svector.7 = type { %class.vector.8 }
%class.vector.8 = type { ptr }
%"struct.euf::ac_plugin::monomial_hash" = type { ptr }
%"struct.euf::ac_plugin::monomial_eq" = type { ptr }
%class.map = type { %class.table2map }
%class.table2map = type { %class.core_hashtable }
%class.core_hashtable = type <{ %"struct.table2map<default_map_entry<unsigned int, euf::ac_plugin::shared>, euf::ac_plugin::monomial_hash, euf::ac_plugin::monomial_eq>::entry_hash_proc", %"struct.table2map<default_map_entry<unsigned int, euf::ac_plugin::shared>, euf::ac_plugin::monomial_hash, euf::ac_plugin::monomial_eq>::entry_eq_proc", ptr, i32, i32, i32, [4 x i8] }>
%"struct.table2map<default_map_entry<unsigned int, euf::ac_plugin::shared>, euf::ac_plugin::monomial_hash, euf::ac_plugin::monomial_eq>::entry_hash_proc" = type { %"struct.euf::ac_plugin::monomial_hash" }
%"struct.table2map<default_map_entry<unsigned int, euf::ac_plugin::shared>, euf::ac_plugin::monomial_hash, euf::ac_plugin::monomial_eq>::entry_eq_proc" = type { %"struct.euf::ac_plugin::monomial_eq" }
%class.svector.11 = type { %class.vector.12 }
%class.vector.12 = type { ptr }
%class.svector.13 = type { %class.vector.14 }
%class.vector.14 = type { ptr }
%class.svector.15 = type { %class.vector.16 }
%class.vector.16 = type { ptr }
%class.svector.17 = type { %class.vector.18 }
%class.vector.18 = type { ptr }
%"class.std::function" = type { %"class.std::_Function_base", ptr }
%"class.std::_Function_base" = type { %"union.std::_Any_data", ptr }
%"union.std::_Any_data" = type { %"union.std::_Nocopy_types" }
%"union.std::_Nocopy_types" = type { { i64, i64 } }
%class.ptr_vector.19 = type { %class.vector.20 }
%class.vector.20 = type { ptr }
%class.ptr_vector = type { %class.vector.0 }
%class.vector.0 = type { ptr }
%"struct.euf::ac_plugin::ref_counts" = type { %class.svector.9, %class.svector.9 }
%class.svector.9 = type { %class.vector.10 }
%class.vector.10 = type { ptr }
%class.svector = type { %class.vector.1 }
%class.vector.1 = type { ptr }
%class.ast = type { i32, i32, i32, i32 }
%"class.euf::enode" = type { ptr, i8, i8, i8, i8, i8, i8, i8, i8, i8, i32, i32, i32, i32, i32, i32, %class.ptr_vector.19, ptr, ptr, ptr, ptr, %class.id_var_list, %"class.euf::justification", %"class.euf::justification", i32, i8, %class.approx_set, %class.approx_set, [0 x ptr] }
%class.id_var_list = type { i32, ptr }
%"class.euf::justification" = type { i32, %union.anon, %union.anon.41 }
%union.anon = type { ptr }
%union.anon.41 = type { ptr }
%class.approx_set = type { %class.approx_set_tpl }
%class.approx_set_tpl = type { i64 }
%"struct.euf::ac_plugin::node" = type { ptr, ptr, ptr, %"class.euf::justification", ptr, %class.svector.9, %class.svector.9 }
%"struct.euf::ac_plugin::monomial_t" = type { %class.ptr_vector, %"struct.euf::ac_plugin::bloom" }
%"struct.euf::ac_plugin::bloom" = type { i64, i64 }

; Function Attrs: mustprogress nounwind uwtable
define linkonce_odr hidden noundef nonnull align 8 dereferenceable(8) ptr @_ZNK6vectorIPN3euf9ac_plugin4nodeELb0EjEixEj(ptr noundef nonnull align 8 dereferenceable(8) %0, i32 noundef %1) #5 comdat align 2 {
  %3 = alloca ptr, align 8
  %4 = alloca i32, align 4
  store ptr %0, ptr %3, align 8, !tbaa !124
  store i32 %1, ptr %4, align 4, !tbaa !10
  %5 = load ptr, ptr %3, align 8
  %6 = getelementptr inbounds nuw %class.vector.0, ptr %5, i32 0, i32 0
  %7 = load ptr, ptr %6, align 8, !tbaa !186
  %8 = load i32, ptr %4, align 4, !tbaa !10
  %9 = zext i32 %8 to i64
  %10 = getelementptr inbounds nuw ptr, ptr %7, i64 %9
  ret ptr %10
}

; Function Attrs: mustprogress nounwind uwtable
define linkonce_odr hidden noundef i32 @_ZNK3ast6get_idEv(ptr noundef nonnull align 4 dereferenceable(16) %0) #5 comdat align 2 {
  %2 = alloca ptr, align 8
  store ptr %0, ptr %2, align 8, !tbaa !265
  %3 = load ptr, ptr %2, align 8
  %4 = getelementptr inbounds nuw %class.ast, ptr %3, i32 0, i32 0
  %5 = load i32, ptr %4, align 4, !tbaa !355
  ret i32 %5
}

; Function Attrs: mustprogress nounwind uwtable
define linkonce_odr hidden noundef i32 @_ZNK6vectorIPN3euf9ac_plugin4nodeELb0EjE4sizeEv(ptr noundef nonnull align 8 dereferenceable(8) %0) #5 comdat align 2 {
  %2 = alloca i32, align 4
  %3 = alloca ptr, align 8
  store ptr %0, ptr %3, align 8, !tbaa !124
  %4 = load ptr, ptr %3, align 8
  %5 = getelementptr inbounds nuw %class.vector.0, ptr %4, i32 0, i32 0
  %6 = load ptr, ptr %5, align 8, !tbaa !186
  %7 = icmp eq ptr %6, null
  br i1 %7, label %8, label %9

8:                                                ; preds = %1
  store i32 0, ptr %2, align 4
  br label %14

9:                                                ; preds = %1
  %10 = getelementptr inbounds nuw %class.vector.0, ptr %4, i32 0, i32 0
  %11 = load ptr, ptr %10, align 8, !tbaa !186
  %12 = getelementptr inbounds i32, ptr %11, i64 -1
  %13 = load i32, ptr %12, align 4, !tbaa !10
  store i32 %13, ptr %2, align 4
  br label %14

14:                                               ; preds = %9, %8
  %15 = load i32, ptr %2, align 4
  ret i32 %15
}

; Function Attrs: mustprogress uwtable
define linkonce_odr hidden noundef ptr @_ZNK3euf9ac_plugin10monomial_tixEj(ptr noundef nonnull align 8 dereferenceable(24) %0, i32 noundef %1) #4 comdat align 2 {
  %3 = alloca ptr, align 8
  %4 = alloca i32, align 4
  store ptr %0, ptr %3, align 8, !tbaa !162
  store i32 %1, ptr %4, align 4, !tbaa !10
  %5 = load ptr, ptr %3, align 8
  %6 = getelementptr inbounds nuw %"struct.euf::ac_plugin::monomial_t", ptr %5, i32 0, i32 0
  %7 = load i32, ptr %4, align 4, !tbaa !10
  %8 = call noundef nonnull align 8 dereferenceable(8) ptr @_ZNK6vectorIPN3euf9ac_plugin4nodeELb0EjEixEj(ptr noundef nonnull align 8 dereferenceable(8) %6, i32 noundef %7)
  %9 = load ptr, ptr %8, align 8, !tbaa !164
  ret ptr %9
}

; Function Attrs: mustprogress uwtable
define linkonce_odr hidden noundef i32 @_ZNK3euf9ac_plugin10monomial_t4sizeEv(ptr noundef nonnull align 8 dereferenceable(24) %0) #4 comdat align 2 {
  %2 = alloca ptr, align 8
  store ptr %0, ptr %2, align 8, !tbaa !162
  %3 = load ptr, ptr %2, align 8
  %4 = getelementptr inbounds nuw %"struct.euf::ac_plugin::monomial_t", ptr %3, i32 0, i32 0
  %5 = call noundef i32 @_ZNK6vectorIPN3euf9ac_plugin4nodeELb0EjE4sizeEv(ptr noundef nonnull align 8 dereferenceable(8) %4)
  ret i32 %5
}

; Function Attrs: mustprogress uwtable
define linkonce_odr hidden noundef i32 @_ZNK3euf5enode6get_idEv(ptr noundef nonnull align 8 dereferenceable(176) %0) #4 comdat align 2 {
  %2 = alloca ptr, align 8
  store ptr %0, ptr %2, align 8, !tbaa !151
  %3 = load ptr, ptr %2, align 8
  %4 = getelementptr inbounds nuw %"class.euf::enode", ptr %3, i32 0, i32 0
  %5 = load ptr, ptr %4, align 8, !tbaa !173
  %6 = call noundef i32 @_ZNK3ast6get_idEv(ptr noundef nonnull align 4 dereferenceable(16) %5)
  ret i32 %6
}

; Function Attrs: mustprogress nounwind uwtable
define linkonce_odr hidden noundef ptr @_ZN6vectorIPN3euf9ac_plugin4nodeELb0EjE3endEv(ptr noundef nonnull align 8 dereferenceable(8) %0) #5 comdat align 2 {
  %2 = alloca ptr, align 8
  store ptr %0, ptr %2, align 8, !tbaa !124
  %3 = load ptr, ptr %2, align 8
  %4 = getelementptr inbounds nuw %class.vector.0, ptr %3, i32 0, i32 0
  %5 = load ptr, ptr %4, align 8, !tbaa !186
  %6 = call noundef i32 @_ZNK6vectorIPN3euf9ac_plugin4nodeELb0EjE4sizeEv(ptr noundef nonnull align 8 dereferenceable(8) %3)
  %7 = zext i32 %6 to i64
  %8 = getelementptr inbounds nuw ptr, ptr %5, i64 %7
  ret ptr %8
}

; Function Attrs: mustprogress nounwind uwtable
define linkonce_odr hidden noundef ptr @_ZN6vectorIPN3euf9ac_plugin4nodeELb0EjE5beginEv(ptr noundef nonnull align 8 dereferenceable(8) %0) #5 comdat align 2 {
  %2 = alloca ptr, align 8
  store ptr %0, ptr %2, align 8, !tbaa !124
  %3 = load ptr, ptr %2, align 8
  %4 = getelementptr inbounds nuw %class.vector.0, ptr %3, i32 0, i32 0
  %5 = load ptr, ptr %4, align 8, !tbaa !186
  ret ptr %5
}

; Function Attrs: mustprogress uwtable
define hidden noundef zeroext i1 @_ZNK3euf9ac_plugin9is_sortedERKNS0_10monomial_tE(ptr noundef nonnull align 8 dereferenceable(432) %0, ptr noundef nonnull align 8 dereferenceable(24) %1) #4 align 2 {
  %3 = alloca i1, align 1
  %4 = alloca ptr, align 8
  %5 = alloca ptr, align 8
  %6 = alloca i32, align 4
  %7 = alloca i32, align 4
  store ptr %0, ptr %4, align 8, !tbaa !3
  store ptr %1, ptr %5, align 8, !tbaa !162
  %8 = load ptr, ptr %4, align 8
  %9 = load ptr, ptr %5, align 8, !tbaa !162
  %10 = getelementptr inbounds nuw %"struct.euf::ac_plugin::monomial_t", ptr %9, i32 0, i32 1
  %11 = getelementptr inbounds nuw %"struct.euf::ac_plugin::bloom", ptr %10, i32 0, i32 0
  %12 = load i64, ptr %11, align 8, !tbaa !283
  %13 = getelementptr inbounds nuw %"class.euf::ac_plugin", ptr %8, i32 0, i32 12
  %14 = load i64, ptr %13, align 8, !tbaa !77
  %15 = icmp eq i64 %12, %14
  br i1 %15, label %16, label %17

16:                                               ; preds = %2
  store i1 true, ptr %3, align 1
  br label %41

17:                                               ; preds = %2
  call void @llvm.lifetime.start.p0(i64 4, ptr %6) #3
  %18 = load ptr, ptr %5, align 8, !tbaa !162
  %19 = call noundef i32 @_ZNK3euf9ac_plugin10monomial_t4sizeEv(ptr noundef nonnull align 8 dereferenceable(24) %18)
  store i32 %19, ptr %6, align 4, !tbaa !10
  br label %20

20:                                               ; preds = %37, %17
  %21 = load i32, ptr %6, align 4, !tbaa !10
  %22 = add i32 %21, -1
  store i32 %22, ptr %6, align 4, !tbaa !10
  %23 = icmp ugt i32 %21, 1
  br i1 %23, label %25, label %24

24:                                               ; preds = %20
  store i32 2, ptr %7, align 4
  br label %38

25:                                               ; preds = %20
  %26 = load ptr, ptr %5, align 8, !tbaa !162
  %27 = load i32, ptr %6, align 4, !tbaa !10
  %28 = sub i32 %27, 1
  %29 = call noundef ptr @_ZNK3euf9ac_plugin10monomial_tixEj(ptr noundef nonnull align 8 dereferenceable(24) %26, i32 noundef %28)
  %30 = call noundef i32 @_ZNK3euf9ac_plugin4node7root_idEv(ptr noundef nonnull align 8 dereferenceable(72) %29)
  %31 = load ptr, ptr %5, align 8, !tbaa !162
  %32 = load i32, ptr %6, align 4, !tbaa !10
  %33 = call noundef ptr @_ZNK3euf9ac_plugin10monomial_tixEj(ptr noundef nonnull align 8 dereferenceable(24) %31, i32 noundef %32)
  %34 = call noundef i32 @_ZNK3euf9ac_plugin4node7root_idEv(ptr noundef nonnull align 8 dereferenceable(72) %33)
  %35 = icmp ugt i32 %30, %34
  br i1 %35, label %36, label %37

36:                                               ; preds = %25
  store i1 false, ptr %3, align 1
  store i32 1, ptr %7, align 4
  br label %38

37:                                               ; preds = %25
  br label %20, !llvm.loop !286

38:                                               ; preds = %36, %24
  call void @llvm.lifetime.end.p0(i64 4, ptr %6) #3
  %39 = load i32, ptr %7, align 4
  switch i32 %39, label %43 [
    i32 2, label %40
    i32 1, label %41
  ]

40:                                               ; preds = %38
  store i1 true, ptr %3, align 1
  br label %41

41:                                               ; preds = %40, %38, %16
  %42 = load i1, ptr %3, align 1
  ret i1 %42

43:                                               ; preds = %38
  unreachable
}

; Function Attrs: mustprogress uwtable
define linkonce_odr hidden noundef i32 @_ZNK3euf9ac_plugin4node7root_idEv(ptr noundef nonnull align 8 dereferenceable(72) %0) #4 comdat align 2 {
  %2 = alloca ptr, align 8
  store ptr %0, ptr %2, align 8, !tbaa !164
  %3 = load ptr, ptr %2, align 8
  %4 = getelementptr inbounds nuw %"struct.euf::ac_plugin::node", ptr %3, i32 0, i32 1
  %5 = load ptr, ptr %4, align 8, !tbaa !196
  %6 = getelementptr inbounds nuw %"struct.euf::ac_plugin::node", ptr %5, i32 0, i32 0
  %7 = load ptr, ptr %6, align 8, !tbaa !194
  %8 = call noundef i32 @_ZNK3euf5enode6get_idEv(ptr noundef nonnull align 8 dereferenceable(176) %7)
  ret i32 %8
}

; Function Attrs: mustprogress uwtable
define linkonce_odr hidden noundef ptr @_ZN3euf9ac_plugin10monomial_t3endEv(ptr noundef nonnull align 8 dereferenceable(24) %0) #4 comdat align 2 {
  %2 = alloca ptr, align 8
  store ptr %0, ptr %2, align 8, !tbaa !162
  %3 = load ptr, ptr %2, align 8
  %4 = getelementptr inbounds nuw %"struct.euf::ac_plugin::monomial_t", ptr %3, i32 0, i32 0
  %5 = call noundef ptr @_ZN6vectorIPN3euf9ac_plugin4nodeELb0EjE3endEv(ptr noundef nonnull align 8 dereferenceable(8) %4)
  ret ptr %5
}

; Function Attrs: mustprogress uwtable
define linkonce_odr hidden noundef ptr @_ZN3euf9ac_plugin10monomial_t5beginEv(ptr noundef nonnull align 8 dereferenceable(24) %0) #4 comdat align 2 {
  %2 = alloca ptr, align 8
  store ptr %0, ptr %2, align 8, !tbaa !162
  %3 = load ptr, ptr %2, align 8
  %4 = getelementptr inbounds nuw %"struct.euf::ac_plugin::monomial_t", ptr %3, i32 0, i32 0
  %5 = call noundef ptr @_ZN6vectorIPN3euf9ac_plugin4nodeELb0EjE5beginEv(ptr noundef nonnull align 8 dereferenceable(8) %4)
  ret ptr %5
}

; Function Attrs: mustprogress uwtable
define hidden noundef i64 @_ZN3euf9ac_plugin6filterERNS0_10monomial_tE(ptr noundef nonnull align 8 dereferenceable(432) %0, ptr noundef nonnull align 8 dereferenceable(24) %1) #4 align 2 {
  %3 = alloca i64, align 8
  %4 = alloca ptr, align 8
  %5 = alloca ptr, align 8
  %6 = alloca ptr, align 8
  %7 = alloca i32, align 4
  %8 = alloca ptr, align 8
  %9 = alloca ptr, align 8
  %10 = alloca ptr, align 8
  %11 = alloca ptr, align 8
  store ptr %0, ptr %4, align 8, !tbaa !3
  store ptr %1, ptr %5, align 8, !tbaa !162
  %12 = load ptr, ptr %4, align 8
  call void @llvm.lifetime.start.p0(i64 8, ptr %6) #3
  %13 = load ptr, ptr %5, align 8, !tbaa !162
  %14 = getelementptr inbounds nuw %"struct.euf::ac_plugin::monomial_t", ptr %13, i32 0, i32 1
  store ptr %14, ptr %6, align 8, !tbaa !287
  %15 = load ptr, ptr %6, align 8, !tbaa !287
  %16 = getelementptr inbounds nuw %"struct.euf::ac_plugin::bloom", ptr %15, i32 0, i32 0
  %17 = load i64, ptr %16, align 8, !tbaa !289
  %18 = getelementptr inbounds nuw %"class.euf::ac_plugin", ptr %12, i32 0, i32 12
  %19 = load i64, ptr %18, align 8, !tbaa !77
  %20 = icmp eq i64 %17, %19
  br i1 %20, label %21, label %25

21:                                               ; preds = %2
  %22 = load ptr, ptr %6, align 8, !tbaa !287
  %23 = getelementptr inbounds nuw %"struct.euf::ac_plugin::bloom", ptr %22, i32 0, i32 1
  %24 = load i64, ptr %23, align 8, !tbaa !290
  store i64 %24, ptr %3, align 8
  store i32 1, ptr %7, align 4
  br label %66

25:                                               ; preds = %2
  %26 = load ptr, ptr %6, align 8, !tbaa !287
  %27 = getelementptr inbounds nuw %"struct.euf::ac_plugin::bloom", ptr %26, i32 0, i32 1
  store i64 0, ptr %27, align 8, !tbaa !290
  call void @llvm.lifetime.start.p0(i64 8, ptr %8) #3
  %28 = load ptr, ptr %5, align 8, !tbaa !162
  store ptr %28, ptr %8, align 8, !tbaa !162
  call void @llvm.lifetime.start.p0(i64 8, ptr %9) #3
  %29 = load ptr, ptr %8, align 8, !tbaa !162
  %30 = call noundef ptr @_ZN3euf9ac_plugin10monomial_t5beginEv(ptr noundef nonnull align 8 dereferenceable(24) %29)
  store ptr %30, ptr %9, align 8, !tbaa !163
  call void @llvm.lifetime.start.p0(i64 8, ptr %10) #3
  %31 = load ptr, ptr %8, align 8, !tbaa !162
  %32 = call noundef ptr @_ZN3euf9ac_plugin10monomial_t3endEv(ptr noundef nonnull align 8 dereferenceable(24) %31)
  store ptr %32, ptr %10, align 8, !tbaa !163
  br label %33

33:                                               ; preds = %50, %25
  %34 = load ptr, ptr %9, align 8, !tbaa !163
  %35 = load ptr, ptr %10, align 8, !tbaa !163
  %36 = icmp ne ptr %34, %35
  br i1 %36, label %38, label %37

37:                                               ; preds = %33
  store i32 2, ptr %7, align 4
  call void @llvm.lifetime.end.p0(i64 8, ptr %10) #3
  call void @llvm.lifetime.end.p0(i64 8, ptr %9) #3
  call void @llvm.lifetime.end.p0(i64 8, ptr %8) #3
  br label %53

38:                                               ; preds = %33
  call void @llvm.lifetime.start.p0(i64 8, ptr %11) #3
  %39 = load ptr, ptr %9, align 8, !tbaa !163
  %40 = load ptr, ptr %39, align 8, !tbaa !164
  store ptr %40, ptr %11, align 8, !tbaa !164
  %41 = load ptr, ptr %11, align 8, !tbaa !164
  %42 = call noundef i32 @_ZNK3euf9ac_plugin4node7root_idEv(ptr noundef nonnull align 8 dereferenceable(72) %41)
  %43 = zext i32 %42 to i64
  %44 = urem i64 %43, 64
  %45 = shl i64 1, %44
  %46 = load ptr, ptr %6, align 8, !tbaa !287
  %47 = getelementptr inbounds nuw %"struct.euf::ac_plugin::bloom", ptr %46, i32 0, i32 1
  %48 = load i64, ptr %47, align 8, !tbaa !290
  %49 = or i64 %48, %45
  store i64 %49, ptr %47, align 8, !tbaa !290
  call void @llvm.lifetime.end.p0(i64 8, ptr %11) #3
  br label %50

50:                                               ; preds = %38
  %51 = load ptr, ptr %9, align 8, !tbaa !163
  %52 = getelementptr inbounds nuw ptr, ptr %51, i32 1
  store ptr %52, ptr %9, align 8, !tbaa !163
  br label %33

53:                                               ; preds = %37
  %54 = load ptr, ptr %5, align 8, !tbaa !162
  %55 = call noundef zeroext i1 @_ZNK3euf9ac_plugin9is_sortedERKNS0_10monomial_tE(ptr noundef nonnull align 8 dereferenceable(432) %12, ptr noundef nonnull align 8 dereferenceable(24) %54)
  br i1 %55, label %58, label %56

56:                                               ; preds = %53
  %57 = load ptr, ptr %5, align 8, !tbaa !162
  call void @_ZN3euf9ac_plugin4sortERNS0_10monomial_tE(ptr noundef nonnull align 8 dereferenceable(432) %12, ptr noundef nonnull align 8 dereferenceable(24) %57)
  br label %58

58:                                               ; preds = %56, %53
  %59 = getelementptr inbounds nuw %"class.euf::ac_plugin", ptr %12, i32 0, i32 12
  %60 = load i64, ptr %59, align 8, !tbaa !77
  %61 = load ptr, ptr %6, align 8, !tbaa !287
  %62 = getelementptr inbounds nuw %"struct.euf::ac_plugin::bloom", ptr %61, i32 0, i32 0
  store i64 %60, ptr %62, align 8, !tbaa !289
  %63 = load ptr, ptr %6, align 8, !tbaa !287
  %64 = getelementptr inbounds nuw %"struct.euf::ac_plugin::bloom", ptr %63, i32 0, i32 1
  %65 = load i64, ptr %64, align 8, !tbaa !290
  store i64 %65, ptr %3, align 8
  store i32 1, ptr %7, align 4
  br label %66

66:                                               ; preds = %58, %21
  call void @llvm.lifetime.end.p0(i64 8, ptr %6) #3
  %67 = load i64, ptr %3, align 8
  ret i64 %67
}