; Function Attrs: mustprogress nofree nosync nounwind memory(readwrite, inaccessiblemem: none) uwtable
define hidden noundef i64 @_ZN3euf9ac_plugin6filterERNS0_10monomial_tE(ptr noundef nonnull readonly align 8 captures(none) dereferenceable(432) %0, ptr noundef nonnull align 8 captures(none) dereferenceable(24) %1) local_unnamed_addr #7 align 2 {
  %3 = getelementptr inbounds nuw i8, ptr %1, i64 8
  %4 = load i64, ptr %3, align 8, !tbaa !234
  %5 = getelementptr inbounds nuw i8, ptr %0, i64 144
  %6 = load i64, ptr %5, align 8, !tbaa !77
  %7 = icmp eq i64 %4, %6
  %8 = getelementptr inbounds nuw i8, ptr %1, i64 16
  br i1 %7, label %51, label %9

9:                                                ; preds = %2
  store i64 0, ptr %8, align 8, !tbaa !235
  %10 = load ptr, ptr %1, align 8, !tbaa !99
  %11 = icmp eq ptr %10, null
  br i1 %11, label %_ZNK3euf9ac_plugin10monomial_t4sizeEv.exit.i, label %_ZN3euf9ac_plugin10monomial_t3endEv.exit

_ZN3euf9ac_plugin10monomial_t3endEv.exit:         ; preds = %9
  %12 = getelementptr inbounds i8, ptr %10, i64 -4
  %13 = load i32, ptr %12, align 4, !tbaa !109
  %14 = zext i32 %13 to i64
  %15 = getelementptr inbounds nuw ptr, ptr %10, i64 %14
  %.not21 = icmp eq i32 %13, 0
  br i1 %.not21, label %16, label %.lr.ph

._crit_edge:                                      ; preds = %.lr.ph
  store i64 %48, ptr %8, align 8, !tbaa !235
  br label %16

16:                                               ; preds = %._crit_edge, %_ZN3euf9ac_plugin10monomial_t3endEv.exit
  %17 = getelementptr inbounds i8, ptr %10, i64 -4
  %18 = load i32, ptr %17, align 4, !tbaa !109
  %19 = zext i32 %18 to i64
  br label %_ZNK3euf9ac_plugin10monomial_t4sizeEv.exit.i

_ZNK3euf9ac_plugin10monomial_t4sizeEv.exit.i:     ; preds = %9, %16
  %.0.i.i.i19 = phi i64 [ %19, %16 ], [ 0, %9 ]
  %invariant.gep.i = getelementptr i8, ptr %10, i64 -16
  br label %20

20:                                               ; preds = %22, %_ZNK3euf9ac_plugin10monomial_t4sizeEv.exit.i
  %indvars.iv.i = phi i64 [ %23, %22 ], [ %.0.i.i.i19, %_ZNK3euf9ac_plugin10monomial_t4sizeEv.exit.i ]
  %21 = icmp ult i64 %indvars.iv.i, 2
  br i1 %21, label %_ZNK3euf9ac_plugin9is_sortedERKNS0_10monomial_tE.exit.thread, label %22

22:                                               ; preds = %20
  %23 = add nsw i64 %indvars.iv.i, -1
  %gep.i = getelementptr ptr, ptr %invariant.gep.i, i64 %indvars.iv.i
  %24 = load ptr, ptr %gep.i, align 8, !tbaa !149
  %25 = getelementptr inbounds nuw i8, ptr %24, i64 8
  %26 = load ptr, ptr %25, align 8, !tbaa !158
  %27 = load ptr, ptr %26, align 8, !tbaa !160
  %28 = load ptr, ptr %27, align 8, !tbaa !123
  %29 = load i32, ptr %28, align 4, !tbaa !139
  %30 = getelementptr inbounds nuw ptr, ptr %10, i64 %23
  %31 = load ptr, ptr %30, align 8, !tbaa !149
  %32 = getelementptr inbounds nuw i8, ptr %31, i64 8
  %33 = load ptr, ptr %32, align 8, !tbaa !158
  %34 = load ptr, ptr %33, align 8, !tbaa !160
  %35 = load ptr, ptr %34, align 8, !tbaa !123
  %36 = load i32, ptr %35, align 4, !tbaa !139
  %37 = icmp ugt i32 %29, %36
  br i1 %37, label %_ZNK3euf9ac_plugin9is_sortedERKNS0_10monomial_tE.exit, label %20, !llvm.loop !233

.lr.ph:                                           ; preds = %_ZN3euf9ac_plugin10monomial_t3endEv.exit, %.lr.ph
  %.01822 = phi ptr [ %49, %.lr.ph ], [ %10, %_ZN3euf9ac_plugin10monomial_t3endEv.exit ]
  %38 = phi i64 [ %48, %.lr.ph ], [ 0, %_ZN3euf9ac_plugin10monomial_t3endEv.exit ]
  %39 = load ptr, ptr %.01822, align 8, !tbaa !149
  %40 = getelementptr inbounds nuw i8, ptr %39, i64 8
  %41 = load ptr, ptr %40, align 8, !tbaa !158
  %42 = load ptr, ptr %41, align 8, !tbaa !160
  %43 = load ptr, ptr %42, align 8, !tbaa !123
  %44 = load i32, ptr %43, align 4, !tbaa !139
  %45 = and i32 %44, 63
  %46 = zext nneg i32 %45 to i64
  %47 = shl nuw i64 1, %46
  %48 = or i64 %47, %38
  %49 = getelementptr inbounds nuw i8, ptr %.01822, i64 8
  %.not = icmp eq ptr %49, %15
  br i1 %.not, label %._crit_edge, label %.lr.ph

_ZNK3euf9ac_plugin9is_sortedERKNS0_10monomial_tE.exit: ; preds = %22
  tail call void @_ZN3euf9ac_plugin4sortERNS0_10monomial_tE(ptr nonnull align 8 poison, ptr noundef nonnull align 8 dereferenceable(24) %1)
  %.pre = load i64, ptr %5, align 8, !tbaa !77
  br label %_ZNK3euf9ac_plugin9is_sortedERKNS0_10monomial_tE.exit.thread

_ZNK3euf9ac_plugin9is_sortedERKNS0_10monomial_tE.exit.thread: ; preds = %20, %_ZNK3euf9ac_plugin9is_sortedERKNS0_10monomial_tE.exit
  %50 = phi i64 [ %.pre, %_ZNK3euf9ac_plugin9is_sortedERKNS0_10monomial_tE.exit ], [ %6, %20 ]
  store i64 %50, ptr %3, align 8, !tbaa !234
  br label %51

51:                                               ; preds = %2, %_ZNK3euf9ac_plugin9is_sortedERKNS0_10monomial_tE.exit.thread
  %.0 = load i64, ptr %8, align 8, !tbaa !235
  ret i64 %.0
}